; Function Attrs: mustprogress nofree norecurse nosync nounwind willreturn memory(write, argmem: readwrite, inaccessiblemem: none) uwtable
define hidden void @_ZN5ceres8internal19TripletSparseMatrix7SetZeroEv(ptr nocapture noundef nonnull align 8 dereferenceable(48) %0) unnamed_addr #10 align 2 {
  %2 = getelementptr inbounds i8, ptr %0, i64 16
  %3 = load i32, ptr %2, align 8
  %.not6.i.i.i = icmp eq i32 %3, 0
  br i1 %.not6.i.i.i, label %_ZSt4fillIPddEvT_S1_RKT0_.exit, label %.lr.ph.i.i.i.preheader

.lr.ph.i.i.i.preheader:                           ; preds = %1
  %4 = sext i32 %3 to i64
  %5 = getelementptr inbounds i8, ptr %0, i64 40
  %6 = load ptr, ptr %5, align 8
  %7 = shl nsw i64 %4, 3
  tail call void @llvm.memset.p0.i64(ptr align 8 %6, i8 0, i64 %7, i1 false)
  br label %_ZSt4fillIPddEvT_S1_RKT0_.exit

_ZSt4fillIPddEvT_S1_RKT0_.exit:                   ; preds = %.lr.ph.i.i.i.preheader, %1
  %8 = getelementptr inbounds i8, ptr %0, i64 20
  store i32 0, ptr %8, align 4
  ret void
}